; ModuleID = '35/178.c'
source_filename = "35/178.c"
target datalayout = "e-m:e-p270:32:32-p271:32:32-p272:64:64-i64:64-f80:128-n8:16:32:64-S128"
target triple = "x86_64-pc-linux-gnu"

@.str = private unnamed_addr constant [6 x i8] c"%d,%d\00", align 1
@.str.1 = private unnamed_addr constant [3 x i8] c"%d\00", align 1
@.str.2 = private unnamed_addr constant [6 x i8] c"%d+%d\00", align 1
@.str.3 = private unnamed_addr constant [3 x i8] c"No\00", align 1

; Function Attrs: noinline nounwind uwtable
define dso_local void @main() #0 {
  %1 = alloca [100 x [100 x i32]], align 16
  %2 = alloca i32, align 4
  %3 = alloca i32, align 4
  %4 = alloca i32*, align 8
  %5 = alloca i32*, align 8
  %6 = alloca i32, align 4
  %7 = alloca i32, align 4
  %8 = alloca i32, align 4
  %9 = alloca i32, align 4
  %10 = alloca i32, align 4
  %11 = alloca i32, align 4
  %12 = alloca i32, align 4
  %13 = bitcast [100 x [100 x i32]]* %1 to i8*
  call void @llvm.memset.p0i8.i64(i8* align 16 %13, i8 0, i64 40000, i1 false)
  store i32 0, i32* %6, align 4
  %14 = call i32 (i8*, ...) @__isoc99_scanf(i8* getelementptr inbounds ([6 x i8], [6 x i8]* @.str, i64 0, i64 0), i32* %2, i32* %3)
  store i32 0, i32* %7, align 4
  br label %15

15:                                               ; preds = %36, %0
  %16 = load i32, i32* %7, align 4
  %17 = load i32, i32* %2, align 4
  %18 = icmp slt i32 %16, %17
  br i1 %18, label %19, label %39

19:                                               ; preds = %15
  store i32 0, i32* %8, align 4
  br label %20

20:                                               ; preds = %32, %19
  %21 = load i32, i32* %8, align 4
  %22 = load i32, i32* %3, align 4
  %23 = icmp slt i32 %21, %22
  br i1 %23, label %24, label %35

24:                                               ; preds = %20
  %25 = load i32, i32* %7, align 4
  %26 = sext i32 %25 to i64
  %27 = getelementptr inbounds [100 x [100 x i32]], [100 x [100 x i32]]* %1, i64 0, i64 %26
  %28 = load i32, i32* %8, align 4
  %29 = sext i32 %28 to i64
  %30 = getelementptr inbounds [100 x i32], [100 x i32]* %27, i64 0, i64 %29
  %31 = call i32 (i8*, ...) @__isoc99_scanf(i8* getelementptr inbounds ([3 x i8], [3 x i8]* @.str.1, i64 0, i64 0), i32* %30)
  br label %32

32:                                               ; preds = %24
  %33 = load i32, i32* %8, align 4
  %34 = add nsw i32 %33, 1
  store i32 %34, i32* %8, align 4
  br label %20

35:                                               ; preds = %20
  br label %36

36:                                               ; preds = %35
  %37 = load i32, i32* %7, align 4
  %38 = add nsw i32 %37, 1
  store i32 %38, i32* %7, align 4
  br label %15

39:                                               ; preds = %15
  store i32 0, i32* %7, align 4
  br label %40

40:                                               ; preds = %110, %39
  %41 = load i32, i32* %7, align 4
  %42 = load i32, i32* %2, align 4
  %43 = icmp slt i32 %41, %42
  br i1 %43, label %44, label %113

44:                                               ; preds = %40
  %45 = load i32, i32* %7, align 4
  %46 = sext i32 %45 to i64
  %47 = getelementptr inbounds [100 x [100 x i32]], [100 x [100 x i32]]* %1, i64 0, i64 %46
  %48 = getelementptr inbounds [100 x i32], [100 x i32]* %47, i64 0, i64 0
  store i32* %48, i32** %4, align 8
  store i32 0, i32* %8, align 4
  br label %49

49:                                               ; preds = %74, %44
  %50 = load i32, i32* %8, align 4
  %51 = load i32, i32* %3, align 4
  %52 = icmp slt i32 %50, %51
  br i1 %52, label %53, label %77

53:                                               ; preds = %49
  %54 = load i32*, i32** %4, align 8
  %55 = load i32, i32* %54, align 4
  %56 = load i32, i32* %7, align 4
  %57 = sext i32 %56 to i64
  %58 = getelementptr inbounds [100 x [100 x i32]], [100 x [100 x i32]]* %1, i64 0, i64 %57
  %59 = load i32, i32* %8, align 4
  %60 = sext i32 %59 to i64
  %61 = getelementptr inbounds [100 x i32], [100 x i32]* %58, i64 0, i64 %60
  %62 = load i32, i32* %61, align 4
  %63 = icmp slt i32 %55, %62
  br i1 %63, label %64, label %73

64:                                               ; preds = %53
  %65 = load i32, i32* %7, align 4
  %66 = sext i32 %65 to i64
  %67 = getelementptr inbounds [100 x [100 x i32]], [100 x [100 x i32]]* %1, i64 0, i64 %66
  %68 = load i32, i32* %8, align 4
  %69 = sext i32 %68 to i64
  %70 = getelementptr inbounds [100 x i32], [100 x i32]* %67, i64 0, i64 %69
  store i32* %70, i32** %4, align 8
  %71 = load i32, i32* %7, align 4
  store i32 %71, i32* %9, align 4
  %72 = load i32, i32* %8, align 4
  store i32 %72, i32* %10, align 4
  br label %73

73:                                               ; preds = %64, %53
  br label %74

74:                                               ; preds = %73
  %75 = load i32, i32* %8, align 4
  %76 = add nsw i32 %75, 1
  store i32 %76, i32* %8, align 4
  br label %49

77:                                               ; preds = %49
  %78 = load i32*, i32** %4, align 8
  %79 = load i32, i32* %7, align 4
  %80 = mul nsw i32 100, %79
  %81 = sext i32 %80 to i64
  %82 = sub i64 0, %81
  %83 = getelementptr inbounds i32, i32* %78, i64 %82
  store i32* %83, i32** %5, align 8
  store i32 0, i32* %8, align 4
  br label %84

84:                                               ; preds = %99, %77
  %85 = load i32, i32* %8, align 4
  %86 = load i32, i32* %2, align 4
  %87 = icmp slt i32 %85, %86
  br i1 %87, label %88, label %102

88:                                               ; preds = %84
  %89 = load i32*, i32** %5, align 8
  %90 = load i32, i32* %89, align 4
  %91 = load i32*, i32** %4, align 8
  %92 = load i32, i32* %91, align 4
  %93 = icmp slt i32 %90, %92
  br i1 %93, label %94, label %95

94:                                               ; preds = %88
  br label %102

95:                                               ; preds = %88
  %96 = load i32*, i32** %5, align 8
  %97 = getelementptr inbounds i32, i32* %96, i64 100
  store i32* %97, i32** %5, align 8
  br label %98

98:                                               ; preds = %95
  br label %99

99:                                               ; preds = %98
  %100 = load i32, i32* %8, align 4
  %101 = add nsw i32 %100, 1
  store i32 %101, i32* %8, align 4
  br label %84

102:                                              ; preds = %94, %84
  %103 = load i32, i32* %8, align 4
  %104 = load i32, i32* %2, align 4
  %105 = icmp eq i32 %103, %104
  br i1 %105, label %106, label %109

106:                                              ; preds = %102
  store i32 1, i32* %6, align 4
  %107 = load i32, i32* %9, align 4
  store i32 %107, i32* %11, align 4
  %108 = load i32, i32* %10, align 4
  store i32 %108, i32* %12, align 4
  br label %109

109:                                              ; preds = %106, %102
  br label %110

110:                                              ; preds = %109
  %111 = load i32, i32* %7, align 4
  %112 = add nsw i32 %111, 1
  store i32 %112, i32* %7, align 4
  br label %40

113:                                              ; preds = %40
  %114 = load i32, i32* %6, align 4
  %115 = icmp eq i32 %114, 1
  br i1 %115, label %116, label %120

116:                                              ; preds = %113
  %117 = load i32, i32* %11, align 4
  %118 = load i32, i32* %12, align 4
  %119 = call i32 (i8*, ...) @printf(i8* getelementptr inbounds ([6 x i8], [6 x i8]* @.str.2, i64 0, i64 0), i32 %117, i32 %118)
  br label %122

120:                                              ; preds = %113
  %121 = call i32 (i8*, ...) @printf(i8* getelementptr inbounds ([3 x i8], [3 x i8]* @.str.3, i64 0, i64 0))
  br label %122

122:                                              ; preds = %120, %116
  ret void
}

; Function Attrs: argmemonly nounwind willreturn
declare void @llvm.memset.p0i8.i64(i8* nocapture writeonly, i8, i64, i1 immarg) #1

declare dso_local i32 @__isoc99_scanf(i8*, ...) #2

declare dso_local i32 @printf(i8*, ...) #2


!llvm.module.flags = !{!0}
!llvm.ident = !{!1}

!0 = !{i32 1, !"wchar_size", i32 4}
!1 = !{!"clang version 10.0.0-4ubuntu1 "}
